target datalayout = "e-m:e-p270:32:32-p271:32:32-p272:64:64-i64:64-i128:128-f80:128-n8:16:32:64-S128"
target triple = "x86_64-pc-linux-gnu"

@.str.3 = private unnamed_addr constant [13 x i8] c"Bad pathname\00", align 1

; Function Attrs: nounwind uwtable
define ptr @Java_java_io_UnixFileSystem_canonicalize0(ptr noundef %0, ptr noundef %1, ptr noundef %2) #0 {
  %4 = alloca ptr, align 8
  %5 = alloca ptr, align 8
  %6 = alloca ptr, align 8
  %7 = alloca ptr, align 8
  %8 = alloca ptr, align 8
  %9 = alloca ptr, align 8
  %10 = alloca [4096 x i8], align 16
  store ptr %0, ptr %4, align 8
  store ptr %1, ptr %5, align 8
  store ptr %2, ptr %6, align 8
  store ptr null, ptr %7, align 8
  %11 = load ptr, ptr %6, align 8
  store ptr %11, ptr %9, align 8
  %12 = load ptr, ptr %9, align 8
  %13 = icmp eq ptr %12, null
  br i1 %13, label %14, label %16

14:                                               ; preds = %3
  %15 = load ptr, ptr %4, align 8
  call void @JNU_ThrowNullPointerException(ptr noundef %15, ptr noundef null)
  br label %38

16:                                               ; preds = %3
  %17 = load ptr, ptr %4, align 8
  %18 = load ptr, ptr %9, align 8
  %19 = call ptr @JNU_GetStringPlatformChars(ptr noundef %17, ptr noundef %18, ptr noundef null)
  store ptr %19, ptr %8, align 8
  %20 = load ptr, ptr %8, align 8
  %21 = icmp eq ptr %20, null
  br i1 %21, label %22, label %23

22:                                               ; preds = %16
  br label %38

23:                                               ; preds = %16
  %24 = load ptr, ptr %8, align 8
  %25 = getelementptr inbounds [4096 x i8], ptr %10, i64 0, i64 0
  %26 = call i32 @JDK_Canonicalize(ptr noundef %24, ptr noundef %25, i32 noundef 4096)
  %27 = icmp slt i32 %26, 0
  br i1 %27, label %28, label %30

28:                                               ; preds = %23
  %29 = load ptr, ptr %4, align 8
  call void @JNU_ThrowIOExceptionWithLastError(ptr noundef %29, ptr noundef @.str.3)
  br label %34

30:                                               ; preds = %23
  %31 = load ptr, ptr %4, align 8
  %32 = getelementptr inbounds [4096 x i8], ptr %10, i64 0, i64 0
  %33 = call ptr @JNU_NewStringPlatform(ptr noundef %31, ptr noundef %32)
  store ptr %33, ptr %7, align 8
  br label %34

34:                                               ; preds = %30, %28
  %35 = load ptr, ptr %4, align 8
  %36 = load ptr, ptr %9, align 8
  %37 = load ptr, ptr %8, align 8
  call void @JNU_ReleaseStringPlatformChars(ptr noundef %35, ptr noundef %36, ptr noundef %37)
  br label %38

38:                                               ; preds = %34, %22, %14
  %39 = load ptr, ptr %7, align 8
  ret ptr %39
}