; Function Attrs: nounwind uwtable
define ptr @Java_java_io_UnixFileSystem_canonicalize0(ptr noundef %0, ptr nocapture noundef readnone %1, ptr noundef %2) local_unnamed_addr #0 {
  %4 = alloca [4096 x i8], align 16
  %5 = icmp eq ptr %2, null
  br i1 %5, label %6, label %7

6:                                                ; preds = %3
  tail call void @JNU_ThrowNullPointerException(ptr noundef %0, ptr noundef null) #7
  br label %17

7:                                                ; preds = %3
  %8 = tail call ptr @JNU_GetStringPlatformChars(ptr noundef %0, ptr noundef nonnull %2, ptr noundef null) #7
  %9 = icmp eq ptr %8, null
  br i1 %9, label %17, label %10

10:                                               ; preds = %7
  %11 = call i32 @JDK_Canonicalize(ptr noundef nonnull %8, ptr noundef nonnull %4, i32 noundef 4096) #7
  %12 = icmp slt i32 %11, 0
  br i1 %12, label %13, label %14

13:                                               ; preds = %10
  call void @JNU_ThrowIOExceptionWithLastError(ptr noundef %0, ptr noundef nonnull @.str.3) #7
  br label %16

14:                                               ; preds = %10
  %15 = call ptr @JNU_NewStringPlatform(ptr noundef %0, ptr noundef nonnull %4) #7
  br label %16

16:                                               ; preds = %14, %13
  %.0 = phi ptr [ null, %13 ], [ %15, %14 ]
  call void @JNU_ReleaseStringPlatformChars(ptr noundef %0, ptr noundef nonnull %2, ptr noundef nonnull %8) #7
  br label %17

17:                                               ; preds = %7, %16, %6
  %.1 = phi ptr [ null, %6 ], [ null, %7 ], [ %.0, %16 ]
  ret ptr %.1
}